target datalayout = "e-m:e-p270:32:32-p271:32:32-p272:64:64-i64:64-i128:128-f80:128-n8:16:32:64-S128"
target triple = "x86_64-unknown-linux-gnu"

%"class.datalog::tr_infrastructure<datalog::relation_traits>::base_ancestor" = type <{ ptr, ptr, %"class.datalog::relation_signature", i32, [4 x i8] }>
%"class.datalog::relation_signature" = type { %"class.datalog::tr_infrastructure<datalog::relation_traits>::signature_base" }
%"class.datalog::tr_infrastructure<datalog::relation_traits>::signature_base" = type { %class.ptr_vector }
%class.ptr_vector = type { %class.vector }
%class.vector = type { ptr }

; Function Attrs: mustprogress nounwind uwtable
define hidden noundef nonnull align 8 dereferenceable(160) ptr @_ZN7datalog30finite_product_relation_plugin3getERKNS_13relation_baseE(ptr noundef nonnull align 8 dereferenceable(28) %r) #5 align 2 {
entry:
  %r.addr = alloca ptr, align 8
  store ptr %r, ptr %r.addr, align 8
  %0 = load ptr, ptr %r.addr, align 8
  ret ptr %0
}

; Function Attrs: mustprogress nounwind uwtable
define linkonce_odr hidden noundef nonnull align 8 dereferenceable(36) ptr @_ZNK7datalog17tr_infrastructureINS_15relation_traitsEE13base_ancestor10get_pluginEv(ptr noundef nonnull align 8 dereferenceable(28) %this) #5 comdat align 2 {
entry:
  %this.addr = alloca ptr, align 8
  store ptr %this, ptr %this.addr, align 8
  %this1 = load ptr, ptr %this.addr, align 8
  %m_plugin = getelementptr inbounds %"class.datalog::tr_infrastructure<datalog::relation_traits>::base_ancestor", ptr %this1, i32 0, i32 1
  %0 = load ptr, ptr %m_plugin, align 8
  ret ptr %0
}

; Function Attrs: mustprogress uwtable
define hidden noundef ptr @_ZN7datalog30finite_product_relation_plugin24mk_filter_by_negation_fnERKNS_13relation_baseES3_jPKjS5_(ptr noundef nonnull align 8 dereferenceable(112) %this, ptr noundef nonnull align 8 dereferenceable(28) %rb, ptr noundef nonnull align 8 dereferenceable(28) %negb, i32 noundef %joined_col_cnt, ptr noundef %r_cols, ptr noundef %negated_cols) unnamed_addr #4 align 2 {
entry:
  %retval = alloca ptr, align 8
  %this.addr = alloca ptr, align 8
  %rb.addr = alloca ptr, align 8
  %negb.addr = alloca ptr, align 8
  %joined_col_cnt.addr = alloca i32, align 4
  %r_cols.addr = alloca ptr, align 8
  %negated_cols.addr = alloca ptr, align 8
  store ptr %this, ptr %this.addr, align 8
  store ptr %rb, ptr %rb.addr, align 8
  store ptr %negb, ptr %negb.addr, align 8
  store i32 %joined_col_cnt, ptr %joined_col_cnt.addr, align 4
  store ptr %r_cols, ptr %r_cols.addr, align 8
  store ptr %negated_cols, ptr %negated_cols.addr, align 8
  %this1 = load ptr, ptr %this.addr, align 8
  %0 = load ptr, ptr %rb.addr, align 8
  %call = call noundef nonnull align 8 dereferenceable(36) ptr @_ZNK7datalog17tr_infrastructureINS_15relation_traitsEE13base_ancestor10get_pluginEv(ptr noundef nonnull align 8 dereferenceable(28) %0)
  %cmp = icmp ne ptr %call, %this1
  br i1 %cmp, label %if.then, label %lor.lhs.false

lor.lhs.false:                                    ; preds = %entry
  %1 = load ptr, ptr %negb.addr, align 8
  %call2 = call noundef nonnull align 8 dereferenceable(36) ptr @_ZNK7datalog17tr_infrastructureINS_15relation_traitsEE13base_ancestor10get_pluginEv(ptr noundef nonnull align 8 dereferenceable(28) %1)
  %cmp3 = icmp ne ptr %call2, %this1
  br i1 %cmp3, label %if.then, label %if.end

if.then:                                          ; preds = %lor.lhs.false, %entry
  store ptr null, ptr %retval, align 8
  br label %return

if.end:                                           ; preds = %lor.lhs.false
  %call4 = call noalias noundef ptr @_ZN6memory8allocateEm(i64 noundef 136)
  %2 = load ptr, ptr %rb.addr, align 8
  %call5 = call noundef nonnull align 8 dereferenceable(160) ptr @_ZN7datalog30finite_product_relation_plugin3getERKNS_13relation_baseE(ptr noundef nonnull align 8 dereferenceable(28) %2)
  %3 = load ptr, ptr %negb.addr, align 8
  %call6 = call noundef nonnull align 8 dereferenceable(160) ptr @_ZN7datalog30finite_product_relation_plugin3getERKNS_13relation_baseE(ptr noundef nonnull align 8 dereferenceable(28) %3)
  %4 = load i32, ptr %joined_col_cnt.addr, align 4
  %5 = load ptr, ptr %r_cols.addr, align 8
  %6 = load ptr, ptr %negated_cols.addr, align 8
  call void @_ZN7datalog30finite_product_relation_plugin18negation_filter_fnC2ERKNS_23finite_product_relationES4_jPKjS6_(ptr noundef nonnull align 8 dereferenceable(136) %call4, ptr noundef nonnull align 8 dereferenceable(160) %call5, ptr noundef nonnull align 8 dereferenceable(160) %call6, i32 noundef %4, ptr noundef %5, ptr noundef %6)
  store ptr %call4, ptr %retval, align 8
  br label %return

return:                                           ; preds = %if.end, %if.then
  %7 = load ptr, ptr %retval, align 8
  ret ptr %7
}