; Function Attrs: mustprogress uwtable
define hidden noundef ptr @_ZN7datalog30finite_product_relation_plugin24mk_filter_by_negation_fnERKNS_13relation_baseES3_jPKjS5_(ptr noundef nonnull readnone align 8 dereferenceable(112) %this, ptr noundef nonnull align 8 dereferenceable(28) %rb, ptr noundef nonnull align 8 dereferenceable(28) %negb, i32 noundef %joined_col_cnt, ptr noundef %r_cols, ptr noundef %negated_cols) unnamed_addr #3 align 2 {
entry:
  %m_plugin.i = getelementptr inbounds i8, ptr %rb, i64 8
  %0 = load ptr, ptr %m_plugin.i, align 8
  %cmp.not = icmp eq ptr %0, %this
  %m_plugin.i3 = getelementptr inbounds i8, ptr %negb, i64 8
  %1 = load ptr, ptr %m_plugin.i3, align 8
  %cmp3.not = icmp eq ptr %1, %this
  %or.cond = select i1 %cmp.not, i1 %cmp3.not, i1 false
  br i1 %or.cond, label %if.end, label %return

if.end:                                           ; preds = %entry
  %call4 = tail call noalias noundef ptr @_ZN6memory8allocateEm(i64 noundef 136)
  tail call void @_ZN7datalog30finite_product_relation_plugin18negation_filter_fnC2ERKNS_23finite_product_relationES4_jPKjS6_(ptr noundef nonnull align 8 dereferenceable(136) %call4, ptr noundef nonnull align 8 dereferenceable(160) %rb, ptr noundef nonnull align 8 dereferenceable(160) %negb, i32 noundef %joined_col_cnt, ptr noundef %r_cols, ptr noundef %negated_cols)
  br label %return

return:                                           ; preds = %entry, %if.end
  %retval.0 = phi ptr [ %call4, %if.end ], [ null, %entry ]
  ret ptr %retval.0
}